target datalayout = "e-m:e-p270:32:32-p271:32:32-p272:64:64-i64:64-i128:128-f80:128-n8:16:32:64-S128"
target triple = "x86_64-pc-linux-gnu"

%struct._packet_info = type { ptr, ptr, i32, i32, %struct.nstime_t, %struct.nstime_t, %struct.nstime_t, i8, ptr, ptr, ptr, ptr, %struct._address, %struct._address, %struct._address, %struct._address, %struct._address, %struct._address, i32, ptr, i8, [3 x i8], %struct.anon, i32, i32, i32, i32, ptr, i8, ptr, ptr, i16, i16, i32, i32, i16, i32, i32, ptr, ptr, ptr, i8, i8, i16, i16, i16, i32, i16, i16, ptr, ptr, ptr, ptr, ptr, i32, i32 }
%struct.nstime_t = type { i64, i32 }
%struct._address = type { i32, i32, ptr, ptr }
%struct.anon = type { i8, [3 x i8] }

; Function Attrs: null_pointer_is_valid sspstrong uwtable
define internal zeroext i1 @dissect_cimd_heur(ptr noundef %0, ptr noundef %1, ptr noundef %2, ptr noundef %3) #0 {
  %5 = alloca i1, align 1
  %6 = alloca ptr, align 8
  %7 = alloca ptr, align 8
  %8 = alloca ptr, align 8
  %9 = alloca ptr, align 8
  %10 = alloca i32, align 4
  %11 = alloca i8, align 1
  %12 = alloca i32, align 4
  store ptr %0, ptr %6, align 8
  store ptr %1, ptr %7, align 8
  store ptr %2, ptr %8, align 8
  store ptr %3, ptr %9, align 8
  call void @llvm.lifetime.start.p0(i64 4, ptr %10) #4
  call void @llvm.lifetime.start.p0(i64 1, ptr %11) #4
  store i8 0, ptr %11, align 1
  %13 = load ptr, ptr %6, align 8
  %14 = call i32 @tvb_captured_length(ptr noundef %13)
  %15 = icmp ult i32 %14, 9
  br i1 %15, label %16, label %17

16:                                               ; preds = %4
  store i1 false, ptr %5, align 1
  store i32 1, ptr %12, align 4
  br label %60

17:                                               ; preds = %4
  %18 = load ptr, ptr %6, align 8
  %19 = call zeroext i8 @tvb_get_uint8(ptr noundef %18, i32 noundef 0)
  %20 = zext i8 %19 to i32
  %21 = icmp ne i32 %20, 2
  br i1 %21, label %22, label %23

22:                                               ; preds = %17
  store i1 false, ptr %5, align 1
  store i32 1, ptr %12, align 4
  br label %60

23:                                               ; preds = %17
  %24 = load ptr, ptr %6, align 8
  %25 = call i32 @tvb_find_uint8(ptr noundef %24, i32 noundef 1, i32 noundef -1, i8 noundef zeroext 3)
  store i32 %25, ptr %10, align 4
  %26 = load i32, ptr %10, align 4
  %27 = icmp eq i32 %26, -1
  br i1 %27, label %28, label %29

28:                                               ; preds = %23
  store i1 false, ptr %5, align 1
  store i32 1, ptr %12, align 4
  br label %60

29:                                               ; preds = %23
  %30 = load ptr, ptr %7, align 8
  %31 = getelementptr inbounds nuw %struct._packet_info, ptr %30, i32 0, i32 51
  %32 = load ptr, ptr %31, align 8
  %33 = load ptr, ptr %6, align 8
  %34 = call ptr @tvb_get_string_enc(ptr noundef %32, ptr noundef %33, i32 noundef 1, i32 noundef 2, i32 noundef 0)
  %35 = call i64 @strtoul(ptr noundef %34, ptr noundef null, i32 noundef 10) #4
  %36 = trunc i64 %35 to i8
  store i8 %36, ptr %11, align 1
  %37 = load i8, ptr %11, align 1
  %38 = zext i8 %37 to i32
  %39 = call ptr @try_val_to_str(i32 noundef %38, ptr noundef @vals_hdr_OC)
  %40 = icmp eq ptr %39, null
  br i1 %40, label %41, label %42

41:                                               ; preds = %29
  store i1 false, ptr %5, align 1
  store i32 1, ptr %12, align 4
  br label %60

42:                                               ; preds = %29
  %43 = load ptr, ptr %6, align 8
  %44 = call zeroext i8 @tvb_get_uint8(ptr noundef %43, i32 noundef 3)
  %45 = zext i8 %44 to i32
  %46 = icmp ne i32 %45, 58
  br i1 %46, label %47, label %48

47:                                               ; preds = %42
  store i1 false, ptr %5, align 1
  store i32 1, ptr %12, align 4
  br label %60

48:                                               ; preds = %42
  %49 = load ptr, ptr %6, align 8
  %50 = call zeroext i8 @tvb_get_uint8(ptr noundef %49, i32 noundef 7)
  %51 = zext i8 %50 to i32
  %52 = icmp ne i32 %51, 9
  br i1 %52, label %53, label %54

53:                                               ; preds = %48
  store i1 false, ptr %5, align 1
  store i32 1, ptr %12, align 4
  br label %60

54:                                               ; preds = %48
  %55 = load ptr, ptr %6, align 8
  %56 = load ptr, ptr %7, align 8
  %57 = load ptr, ptr %8, align 8
  %58 = load ptr, ptr %9, align 8
  %59 = call i32 @dissect_cimd(ptr noundef %55, ptr noundef %56, ptr noundef %57, ptr noundef %58)
  store i1 true, ptr %5, align 1
  store i32 1, ptr %12, align 4
  br label %60

60:                                               ; preds = %54, %53, %47, %41, %28, %22, %16
  call void @llvm.lifetime.end.p0(i64 1, ptr %11) #4
  call void @llvm.lifetime.end.p0(i64 4, ptr %10) #4
  %61 = load i1, ptr %5, align 1
  ret i1 %61
}