; Function Attrs: null_pointer_is_valid sspstrong uwtable
define internal noundef zeroext i1 @dissect_cimd_heur(ptr noundef %0, ptr noundef readonly captures(none) %1, ptr noundef %2, ptr readnone captures(none) %3) #0 {
  %5 = tail call i32 @tvb_captured_length(ptr noundef %0)
  %6 = icmp ult i32 %5, 9
  br i1 %6, label %27, label %7

7:                                                ; preds = %4
  %8 = tail call zeroext i8 @tvb_get_uint8(ptr noundef %0, i32 noundef 0)
  %.not = icmp eq i8 %8, 2
  br i1 %.not, label %9, label %27

9:                                                ; preds = %7
  %10 = tail call i32 @tvb_find_uint8(ptr noundef %0, i32 noundef 1, i32 noundef -1, i8 noundef zeroext 3)
  %11 = icmp eq i32 %10, -1
  br i1 %11, label %27, label %12

12:                                               ; preds = %9
  %13 = getelementptr inbounds nuw i8, ptr %1, i64 408
  %14 = load ptr, ptr %13, align 8
  %15 = tail call ptr @tvb_get_string_enc(ptr noundef %14, ptr noundef %0, i32 noundef 1, i32 noundef 2, i32 noundef 0)
  %16 = tail call i64 @strtoul(ptr noundef captures(none) %15, ptr noundef null, i32 noundef 10) #4
  %17 = trunc i64 %16 to i32
  %18 = and i32 %17, 255
  %19 = tail call ptr @try_val_to_str(i32 noundef %18, ptr noundef nonnull @vals_hdr_OC)
  %20 = icmp eq ptr %19, null
  br i1 %20, label %27, label %21

21:                                               ; preds = %12
  %22 = tail call zeroext i8 @tvb_get_uint8(ptr noundef %0, i32 noundef 3)
  %.not13 = icmp eq i8 %22, 58
  br i1 %.not13, label %23, label %27

23:                                               ; preds = %21
  %24 = tail call zeroext i8 @tvb_get_uint8(ptr noundef %0, i32 noundef 7)
  %.not14 = icmp eq i8 %24, 9
  br i1 %.not14, label %25, label %27

25:                                               ; preds = %23
  %26 = tail call i32 @dissect_cimd(ptr noundef %0, ptr noundef %1, ptr noundef %2, ptr poison)
  br label %27

27:                                               ; preds = %23, %21, %12, %9, %7, %4, %25
  %.0 = phi i1 [ true, %25 ], [ false, %4 ], [ false, %7 ], [ false, %9 ], [ false, %12 ], [ false, %21 ], [ false, %23 ]
  ret i1 %.0
}